target datalayout = "e-m:e-p270:32:32-p271:32:32-p272:64:64-i64:64-i128:128-f80:128-n8:16:32:64-S128"
target triple = "x86_64-pc-linux-gnu"

%struct.AVFilterContext = type { ptr, ptr, ptr, ptr, ptr, i32, ptr, ptr, i32, ptr, ptr, i32, i32, ptr, ptr, ptr, ptr, i32, ptr, i32, i32 }
%struct.AudioDynamicEqualizerContext = type { ptr, double, double, double, double, double, double, double, double, double, double, double, double, double, double, double, i32, i32, i32, i32, i32, i32, i32, ptr, ptr, [3 x double], [3 x double], [3 x float], [3 x float], ptr }
%struct.ThreadData = type { ptr, ptr }
%struct.AVFilterLink = type { ptr, ptr, ptr, ptr, i32, i32, i32, i32, %struct.AVRational, i32, i32, i32, %struct.AVChannelLayout, %struct.AVRational, ptr, i32, %struct.AVFilterFormatsConfig, %struct.AVFilterFormatsConfig }
%struct.AVChannelLayout = type { i32, i32, %union.anon.1, ptr }
%union.anon.1 = type { i64 }
%struct.AVRational = type { i32, i32 }
%struct.AVFilterFormatsConfig = type { ptr, ptr, ptr, ptr, ptr }
%struct.AVFrame = type { [8 x ptr], [8 x i32], ptr, i32, i32, i32, i32, i32, %struct.AVRational, i64, i64, %struct.AVRational, i32, ptr, i32, i32, [8 x ptr], ptr, i32, ptr, i32, i32, i32, i32, i32, i32, i32, i64, ptr, i32, ptr, ptr, i64, i64, i64, i64, ptr, %struct.AVChannelLayout, i64 }

; Function Attrs: nounwind uwtable
define internal i32 @filter_frame(ptr noundef %0, ptr noundef %1) #1 {
  %3 = alloca i32, align 4
  %4 = alloca ptr, align 8
  %5 = alloca ptr, align 8
  %6 = alloca ptr, align 8
  %7 = alloca ptr, align 8
  %8 = alloca ptr, align 8
  %9 = alloca %struct.ThreadData, align 8
  %10 = alloca ptr, align 8
  %11 = alloca i32, align 4
  store ptr %0, ptr %4, align 8, !tbaa !36
  store ptr %1, ptr %5, align 8, !tbaa !38
  call void @llvm.lifetime.start.p0(i64 8, ptr %6) #8
  %12 = load ptr, ptr %4, align 8, !tbaa !36
  %13 = getelementptr inbounds nuw %struct.AVFilterLink, ptr %12, i32 0, i32 2
  %14 = load ptr, ptr %13, align 8, !tbaa !40
  store ptr %14, ptr %6, align 8, !tbaa !4
  call void @llvm.lifetime.start.p0(i64 8, ptr %7) #8
  %15 = load ptr, ptr %6, align 8, !tbaa !4
  %16 = getelementptr inbounds nuw %struct.AVFilterContext, ptr %15, i32 0, i32 7
  %17 = load ptr, ptr %16, align 8, !tbaa !48
  %18 = getelementptr inbounds ptr, ptr %17, i64 0
  %19 = load ptr, ptr %18, align 8, !tbaa !36
  store ptr %19, ptr %7, align 8, !tbaa !36
  call void @llvm.lifetime.start.p0(i64 8, ptr %8) #8
  %20 = load ptr, ptr %6, align 8, !tbaa !4
  %21 = getelementptr inbounds nuw %struct.AVFilterContext, ptr %20, i32 0, i32 9
  %22 = load ptr, ptr %21, align 8, !tbaa !9
  store ptr %22, ptr %8, align 8, !tbaa !22
  call void @llvm.lifetime.start.p0(i64 16, ptr %9) #8
  call void @llvm.lifetime.start.p0(i64 8, ptr %10) #8
  %23 = load ptr, ptr %5, align 8, !tbaa !38
  %24 = call i32 @av_frame_is_writable(ptr noundef %23)
  %25 = icmp ne i32 %24, 0
  br i1 %25, label %26, label %28

26:                                               ; preds = %2
  %27 = load ptr, ptr %5, align 8, !tbaa !38
  store ptr %27, ptr %10, align 8, !tbaa !38
  br label %41

28:                                               ; preds = %2
  %29 = load ptr, ptr %7, align 8, !tbaa !36
  %30 = load ptr, ptr %5, align 8, !tbaa !38
  %31 = getelementptr inbounds nuw %struct.AVFrame, ptr %30, i32 0, i32 5
  %32 = load i32, ptr %31, align 8, !tbaa !49
  %33 = call ptr @ff_get_audio_buffer(ptr noundef %29, i32 noundef %32)
  store ptr %33, ptr %10, align 8, !tbaa !38
  %34 = load ptr, ptr %10, align 8, !tbaa !38
  %35 = icmp ne ptr %34, null
  br i1 %35, label %37, label %36

36:                                               ; preds = %28
  call void @av_frame_free(ptr noundef %5)
  store i32 -12, ptr %3, align 4
  store i32 1, ptr %11, align 4
  br label %81

37:                                               ; preds = %28
  %38 = load ptr, ptr %10, align 8, !tbaa !38
  %39 = load ptr, ptr %5, align 8, !tbaa !38
  %40 = call i32 @av_frame_copy_props(ptr noundef %38, ptr noundef %39)
  br label %41

41:                                               ; preds = %37, %26
  %42 = load ptr, ptr %5, align 8, !tbaa !38
  %43 = getelementptr inbounds nuw %struct.ThreadData, ptr %9, i32 0, i32 0
  store ptr %42, ptr %43, align 8, !tbaa !55
  %44 = load ptr, ptr %10, align 8, !tbaa !38
  %45 = getelementptr inbounds nuw %struct.ThreadData, ptr %9, i32 0, i32 1
  store ptr %44, ptr %45, align 8, !tbaa !57
  %46 = load ptr, ptr %8, align 8, !tbaa !22
  %47 = getelementptr inbounds nuw %struct.AudioDynamicEqualizerContext, ptr %46, i32 0, i32 23
  %48 = load ptr, ptr %47, align 8, !tbaa !58
  %49 = load ptr, ptr %6, align 8, !tbaa !4
  %50 = call i32 %48(ptr noundef %49)
  %51 = load ptr, ptr %6, align 8, !tbaa !4
  %52 = load ptr, ptr %8, align 8, !tbaa !22
  %53 = getelementptr inbounds nuw %struct.AudioDynamicEqualizerContext, ptr %52, i32 0, i32 24
  %54 = load ptr, ptr %53, align 8, !tbaa !59
  %55 = load ptr, ptr %7, align 8, !tbaa !36
  %56 = getelementptr inbounds nuw %struct.AVFilterLink, ptr %55, i32 0, i32 12
  %57 = getelementptr inbounds nuw %struct.AVChannelLayout, ptr %56, i32 0, i32 1
  %58 = load i32, ptr %57, align 4, !tbaa !60
  %59 = load ptr, ptr %6, align 8, !tbaa !4
  %60 = call i32 @ff_filter_get_nb_threads(ptr noundef %59) #9
  %61 = icmp sgt i32 %58, %60
  br i1 %61, label %62, label %65

62:                                               ; preds = %41
  %63 = load ptr, ptr %6, align 8, !tbaa !4
  %64 = call i32 @ff_filter_get_nb_threads(ptr noundef %63) #9
  br label %70

65:                                               ; preds = %41
  %66 = load ptr, ptr %7, align 8, !tbaa !36
  %67 = getelementptr inbounds nuw %struct.AVFilterLink, ptr %66, i32 0, i32 12
  %68 = getelementptr inbounds nuw %struct.AVChannelLayout, ptr %67, i32 0, i32 1
  %69 = load i32, ptr %68, align 4, !tbaa !60
  br label %70

70:                                               ; preds = %65, %62
  %71 = phi i32 [ %64, %62 ], [ %69, %65 ]
  %72 = call i32 @ff_filter_execute(ptr noundef %51, ptr noundef %54, ptr noundef %9, ptr noundef null, i32 noundef %71)
  %73 = load ptr, ptr %10, align 8, !tbaa !38
  %74 = load ptr, ptr %5, align 8, !tbaa !38
  %75 = icmp ne ptr %73, %74
  br i1 %75, label %76, label %77

76:                                               ; preds = %70
  call void @av_frame_free(ptr noundef %5)
  br label %77

77:                                               ; preds = %76, %70
  %78 = load ptr, ptr %7, align 8, !tbaa !36
  %79 = load ptr, ptr %10, align 8, !tbaa !38
  %80 = call i32 @ff_filter_frame(ptr noundef %78, ptr noundef %79)
  store i32 %80, ptr %3, align 4
  store i32 1, ptr %11, align 4
  br label %81

81:                                               ; preds = %77, %36
  call void @llvm.lifetime.end.p0(i64 8, ptr %10) #8
  call void @llvm.lifetime.end.p0(i64 16, ptr %9) #8
  call void @llvm.lifetime.end.p0(i64 8, ptr %8) #8
  call void @llvm.lifetime.end.p0(i64 8, ptr %7) #8
  call void @llvm.lifetime.end.p0(i64 8, ptr %6) #8
  %82 = load i32, ptr %3, align 4
  ret i32 %82
}