; Function Attrs: nounwind uwtable
define internal i32 @filter_frame(ptr noundef readonly captures(none) %0, ptr noundef %1) #1 {
  %3 = alloca ptr, align 8
  %4 = alloca %struct.ThreadData, align 8
  store ptr %1, ptr %3, align 8, !tbaa !28
  %5 = getelementptr inbounds nuw i8, ptr %0, i64 16
  %6 = load ptr, ptr %5, align 8, !tbaa !30
  %7 = getelementptr inbounds nuw i8, ptr %6, i64 56
  %8 = load ptr, ptr %7, align 8, !tbaa !39
  %9 = load ptr, ptr %8, align 8, !tbaa !40
  %10 = getelementptr inbounds nuw i8, ptr %6, i64 72
  %11 = load ptr, ptr %10, align 8, !tbaa !4
  call void @llvm.lifetime.start.p0(i64 16, ptr nonnull %4) #10
  %12 = tail call i32 @av_frame_is_writable(ptr noundef %1) #10
  %.not = icmp eq i32 %12, 0
  br i1 %.not, label %13, label %20

13:                                               ; preds = %2
  %14 = getelementptr inbounds nuw i8, ptr %1, i64 112
  %15 = load i32, ptr %14, align 8, !tbaa !42
  %16 = tail call ptr @ff_get_audio_buffer(ptr noundef %9, i32 noundef %15) #10
  %.not22 = icmp eq ptr %16, null
  br i1 %.not22, label %17, label %18

17:                                               ; preds = %13
  call void @av_frame_free(ptr noundef nonnull %3) #10
  br label %35

18:                                               ; preds = %13
  %19 = tail call i32 @av_frame_copy_props(ptr noundef nonnull %16, ptr noundef nonnull %1) #10
  br label %20

20:                                               ; preds = %2, %18
  %.0 = phi ptr [ %16, %18 ], [ %1, %2 ]
  store ptr %1, ptr %4, align 8, !tbaa !48
  %21 = getelementptr inbounds nuw i8, ptr %4, i64 8
  store ptr %.0, ptr %21, align 8, !tbaa !50
  %22 = getelementptr inbounds nuw i8, ptr %11, i64 160
  %23 = load ptr, ptr %22, align 8, !tbaa !51
  %24 = tail call i32 %23(ptr noundef nonnull %6) #10
  %25 = getelementptr inbounds nuw i8, ptr %11, i64 168
  %26 = load ptr, ptr %25, align 8, !tbaa !52
  %27 = getelementptr inbounds nuw i8, ptr %9, i64 76
  %28 = load i32, ptr %27, align 4, !tbaa !53
  %29 = tail call i32 @ff_filter_get_nb_threads(ptr noundef nonnull %6) #11
  %. = tail call i32 @llvm.smin.i32(i32 %28, i32 %29)
  %30 = call i32 @ff_filter_execute(ptr noundef nonnull %6, ptr noundef %26, ptr noundef nonnull %4, ptr noundef null, i32 noundef %.) #10
  %31 = load ptr, ptr %3, align 8, !tbaa !28
  %.not23 = icmp eq ptr %.0, %31
  br i1 %.not23, label %33, label %32

32:                                               ; preds = %20
  call void @av_frame_free(ptr noundef nonnull %3) #10
  br label %33

33:                                               ; preds = %32, %20
  %34 = call i32 @ff_filter_frame(ptr noundef nonnull %9, ptr noundef %.0) #10
  br label %35

35:                                               ; preds = %33, %17
  %.018 = phi i32 [ %34, %33 ], [ -12, %17 ]
  call void @llvm.lifetime.end.p0(i64 16, ptr nonnull %4) #10
  ret i32 %.018
}